target datalayout = "e-m:e-p270:32:32-p271:32:32-p272:64:64-i64:64-i128:128-f80:128-n8:16:32:64-S128"
target triple = "x86_64-pc-linux-gnu"

%struct._zend_browscap_globals = type { %struct.browser_data }
%struct.browser_data = type { ptr, ptr, i32, i32, [4096 x i8] }
%struct._zend_refcounted_h = type { i32, %union.anon }
%union.anon = type { i32 }
%struct._zend_string = type { %struct._zend_refcounted_h, i64, i64, [1 x i8] }

@browscap_globals = hidden global %struct._zend_browscap_globals zeroinitializer, align 8

; Function Attrs: nounwind uwtable
define hidden i32 @OnChangeBrowscap(ptr noundef %0, ptr noundef %1, ptr noundef %2, ptr noundef %3, ptr noundef %4, i32 noundef %5) #0 {
  %7 = alloca i32, align 4
  %8 = alloca ptr, align 8
  %9 = alloca ptr, align 8
  %10 = alloca ptr, align 8
  %11 = alloca ptr, align 8
  %12 = alloca ptr, align 8
  %13 = alloca i32, align 4
  %14 = alloca ptr, align 8
  store ptr %0, ptr %8, align 8
  store ptr %1, ptr %9, align 8
  store ptr %2, ptr %10, align 8
  store ptr %3, ptr %11, align 8
  store ptr %4, ptr %12, align 8
  store i32 %5, ptr %13, align 4
  %15 = load i32, ptr %13, align 4
  %16 = icmp eq i32 %15, 1
  br i1 %16, label %17, label %18

17:                                               ; preds = %6
  store i32 0, ptr %7, align 4
  br label %43

18:                                               ; preds = %6
  %19 = load i32, ptr %13, align 4
  %20 = icmp eq i32 %19, 4
  br i1 %20, label %21, label %41

21:                                               ; preds = %18
  store ptr @browscap_globals, ptr %14, align 8
  %22 = load ptr, ptr %14, align 8
  %23 = getelementptr inbounds %struct.browser_data, ptr %22, i32 0, i32 4
  %24 = getelementptr inbounds [4096 x i8], ptr %23, i64 0, i64 0
  %25 = load i8, ptr %24, align 8
  %26 = sext i8 %25 to i32
  %27 = icmp ne i32 %26, 0
  br i1 %27, label %28, label %30

28:                                               ; preds = %21
  %29 = load ptr, ptr %14, align 8
  call void @browscap_bdata_dtor(ptr noundef %29, i32 noundef 0)
  br label %30

30:                                               ; preds = %28, %21
  %31 = load ptr, ptr %9, align 8
  %32 = getelementptr inbounds %struct._zend_string, ptr %31, i32 0, i32 3
  %33 = getelementptr inbounds [1 x i8], ptr %32, i64 0, i64 0
  %34 = load ptr, ptr %14, align 8
  %35 = getelementptr inbounds %struct.browser_data, ptr %34, i32 0, i32 4
  %36 = getelementptr inbounds [4096 x i8], ptr %35, i64 0, i64 0
  %37 = call ptr @tsrm_realpath(ptr noundef %33, ptr noundef %36)
  %38 = icmp eq ptr %37, null
  br i1 %38, label %39, label %40

39:                                               ; preds = %30
  store i32 -1, ptr %7, align 4
  br label %43

40:                                               ; preds = %30
  store i32 0, ptr %7, align 4
  br label %43

41:                                               ; preds = %18
  br label %42

42:                                               ; preds = %41
  store i32 -1, ptr %7, align 4
  br label %43

43:                                               ; preds = %42, %40, %39, %17
  %44 = load i32, ptr %7, align 4
  ret i32 %44
}