; Function Attrs: nounwind uwtable
define hidden i32 @OnChangeBrowscap(ptr nocapture noundef readnone %0, ptr noundef %1, ptr nocapture noundef readnone %2, ptr nocapture noundef readnone %3, ptr nocapture noundef readnone %4, i32 noundef %5) local_unnamed_addr #0 {
  switch i32 %5, label %14 [
    i32 1, label %15
    i32 4, label %7
  ]

7:                                                ; preds = %6
  %8 = load i8, ptr getelementptr inbounds (%struct._zend_browscap_globals, ptr @browscap_globals, i64 0, i32 0, i32 4), align 8
  %.not = icmp eq i8 %8, 0
  br i1 %.not, label %10, label %9

9:                                                ; preds = %7
  tail call fastcc void @browscap_bdata_dtor(ptr noundef nonnull @browscap_globals, i32 noundef 0)
  br label %10

10:                                               ; preds = %9, %7
  %11 = getelementptr inbounds i8, ptr %1, i64 24
  %12 = tail call ptr @tsrm_realpath(ptr noundef nonnull %11, ptr noundef nonnull getelementptr inbounds (%struct._zend_browscap_globals, ptr @browscap_globals, i64 0, i32 0, i32 4)) #13
  %13 = icmp eq ptr %12, null
  %. = sext i1 %13 to i32
  br label %15

14:                                               ; preds = %6
  br label %15

15:                                               ; preds = %10, %6, %14
  %.0 = phi i32 [ -1, %14 ], [ 0, %6 ], [ %., %10 ]
  ret i32 %.0
}